; Function Attrs: mustprogress nounwind uwtable
define hidden noundef i32 @_ZNK4llvh16FoldingSetNodeID11ComputeHashEv(ptr nocapture noundef nonnull readonly align 8 dereferenceable(144) %this) local_unnamed_addr #0 align 2 {
entry:
  %0 = load ptr, ptr %this, align 8
  %Size.i = getelementptr inbounds i8, ptr %this, i64 8
  %1 = load i32, ptr %Size.i, align 8
  %conv.i = zext i32 %1 to i64
  %add.ptr.i = getelementptr inbounds i32, ptr %0, i64 %conv.i
  %call.i.i = tail call i64 @_ZN4llvh7hashing6detail23hash_combine_range_implIKjEENSt9enable_ifIXsr16is_hashable_dataIT_EE5valueENS_9hash_codeEE4typeEPS5_S9_(ptr noundef %0, ptr noundef %add.ptr.i)
  %conv.i3 = trunc i64 %call.i.i to i32
  ret i32 %conv.i3
}